target datalayout = "e-m:e-p270:32:32-p271:32:32-p272:64:64-i64:64-i128:128-f80:128-n8:16:32:64-S128"
target triple = "x86_64-pc-linux-gnu"

%"class.std::basic_ostream" = type { ptr, %"class.std::basic_ios" }
%"class.std::basic_ios" = type { %"class.std::ios_base", ptr, i8, i8, ptr, ptr, ptr, ptr }
%"class.std::ios_base" = type { ptr, i64, i64, i32, i32, i32, ptr, %"struct.std::ios_base::_Words", [8 x %"struct.std::ios_base::_Words"], i32, ptr, %"class.std::locale" }
%"struct.std::ios_base::_Words" = type { ptr, i64 }
%"class.std::locale" = type { ptr }

@_ZTIPKc = external constant ptr
@_ZSt4cerr = external global %"class.std::basic_ostream", align 8
@.str = private unnamed_addr constant [2 x i8] c"\0A\00", align 1

; Function Attrs: mustprogress uwtable
define void @satisfyVPSC(ptr noundef %0) #4 personality ptr @__gxx_personality_v0 {
  %2 = alloca ptr, align 8
  %3 = alloca ptr, align 8
  %4 = alloca i32, align 4
  %5 = alloca ptr, align 8
  store ptr %0, ptr %2, align 8, !tbaa !50
  %6 = load ptr, ptr %2, align 8, !tbaa !50
  %7 = load ptr, ptr %6, align 8, !tbaa !52
  %8 = getelementptr inbounds ptr, ptr %7, i64 0
  %9 = load ptr, ptr %8, align 8
  invoke void %9(ptr noundef nonnull align 8 dereferenceable(84) %6)
          to label %10 unwind label %11

10:                                               ; preds = %1
  br label %31

11:                                               ; preds = %1
  %12 = landingpad { ptr, i32 }
          catch ptr @_ZTIPKc
  %13 = extractvalue { ptr, i32 } %12, 0
  store ptr %13, ptr %3, align 8
  %14 = extractvalue { ptr, i32 } %12, 1
  store i32 %14, ptr %4, align 4
  br label %15

15:                                               ; preds = %11
  %16 = load i32, ptr %4, align 4
  %17 = call i32 @llvm.eh.typeid.for.p0(ptr @_ZTIPKc) #3
  %18 = icmp eq i32 %16, %17
  br i1 %18, label %19, label %32

19:                                               ; preds = %15
  call void @llvm.lifetime.start.p0(i64 8, ptr %5) #3
  %20 = load ptr, ptr %3, align 8
  %21 = call ptr @__cxa_begin_catch(ptr %20) #3
  store ptr %21, ptr %5, align 8
  %22 = load ptr, ptr %5, align 8, !tbaa !54
  %23 = invoke noundef nonnull align 8 dereferenceable(8) ptr @_ZStlsISt11char_traitsIcEERSt13basic_ostreamIcT_ES5_PKc(ptr noundef nonnull align 8 dereferenceable(8) @_ZSt4cerr, ptr noundef %22)
          to label %24 unwind label %27

24:                                               ; preds = %19
  %25 = invoke noundef nonnull align 8 dereferenceable(8) ptr @_ZStlsISt11char_traitsIcEERSt13basic_ostreamIcT_ES5_PKc(ptr noundef nonnull align 8 dereferenceable(8) %23, ptr noundef @.str)
          to label %26 unwind label %27

26:                                               ; preds = %24
  call void @exit(i32 noundef 1) #20
  unreachable

27:                                               ; preds = %24, %19
  %28 = landingpad { ptr, i32 }
          cleanup
  %29 = extractvalue { ptr, i32 } %28, 0
  store ptr %29, ptr %3, align 8
  %30 = extractvalue { ptr, i32 } %28, 1
  store i32 %30, ptr %4, align 4
  call void @__cxa_end_catch() #3
  call void @llvm.lifetime.end.p0(i64 8, ptr %5) #3
  br label %32

31:                                               ; preds = %10
  ret void

32:                                               ; preds = %27, %15
  %33 = load ptr, ptr %3, align 8
  %34 = load i32, ptr %4, align 4
  %35 = insertvalue { ptr, i32 } poison, ptr %33, 0
  %36 = insertvalue { ptr, i32 } %35, i32 %34, 1
  resume { ptr, i32 } %36
}