; Function Attrs: mustprogress uwtable
define void @satisfyVPSC(ptr noundef %0) local_unnamed_addr #3 personality ptr @__gxx_personality_v0 {
  %2 = load ptr, ptr %0, align 8, !tbaa !33
  %3 = load ptr, ptr %2, align 8
  invoke void %3(ptr noundef nonnull align 8 dereferenceable(84) %0)
          to label %18 unwind label %4

4:                                                ; preds = %1
  %5 = landingpad { ptr, i32 }
          catch ptr @_ZTIPKc
  %6 = extractvalue { ptr, i32 } %5, 1
  %7 = tail call i32 @llvm.eh.typeid.for.p0(ptr nonnull @_ZTIPKc) #23
  %8 = icmp eq i32 %6, %7
  br i1 %8, label %9, label %19

9:                                                ; preds = %4
  %10 = extractvalue { ptr, i32 } %5, 0
  %11 = tail call ptr @__cxa_begin_catch(ptr %10) #23
  %12 = invoke noundef nonnull align 8 dereferenceable(8) ptr @_ZStlsISt11char_traitsIcEERSt13basic_ostreamIcT_ES5_PKc(ptr noundef nonnull align 8 dereferenceable(8) @_ZSt4cerr, ptr noundef %11)
          to label %13 unwind label %16

13:                                               ; preds = %9
  %14 = invoke noundef nonnull align 8 dereferenceable(8) ptr @_ZStlsISt11char_traitsIcEERSt13basic_ostreamIcT_ES5_PKc(ptr noundef nonnull align 8 dereferenceable(8) %12, ptr noundef nonnull @.str)
          to label %15 unwind label %16

15:                                               ; preds = %13
  tail call void @exit(i32 noundef 1) #24
  unreachable

16:                                               ; preds = %13, %9
  %17 = landingpad { ptr, i32 }
          cleanup
  tail call void @__cxa_end_catch() #23
  br label %19

18:                                               ; preds = %1
  ret void

19:                                               ; preds = %16, %4
  %.merged = phi { ptr, i32 } [ %17, %16 ], [ %5, %4 ]
  resume { ptr, i32 } %.merged
}